; Function Attrs: mustprogress nofree norecurse nosync nounwind willreturn memory(readwrite, inaccessiblemem: none) uwtable
define void @Abc_FlowRetime_SetLag(ptr noundef readonly captures(none) %0, i32 noundef %1) local_unnamed_addr #8 {
  %3 = load ptr, ptr @pManMR, align 8, !tbaa !3
  %4 = getelementptr inbounds nuw i8, ptr %3, i64 96
  %5 = load ptr, ptr %4, align 8, !tbaa !70
  %6 = getelementptr i8, ptr %0, i64 16
  %.val = load i32, ptr %6, align 8, !tbaa !80
  %7 = getelementptr i8, ptr %5, i64 8
  %.val1 = load ptr, ptr %7, align 8, !tbaa !67
  %8 = sext i32 %.val to i64
  %9 = getelementptr inbounds i32, ptr %.val1, i64 %8
  store i32 %1, ptr %9, align 4, !tbaa !48
  ret void
}